(dp0
S'comment'
p1
S'                    '
p2
sS'lay_bf'
p3
F1.0
sS'nw_len'
p4
F2000.0
sS'target'
p5
S'1AVD'
p6
sS'eps_2'
p7
F3.9
sS'eps_3'
p8
F78.0
sS'eps_1'
p9
F12.0
sS'n_0'
p10
F1.11e+24
sS'L_tf'
p11
F2.04
sS'mu'
p12
F0.01
sS'lay_ox'
p13
F2.0
sS'L_d'
p14
F2.0
sS'nw_type'
p15
S'P'
p16
sS'rho'
p17
(lp18
(lp19
S'18.251'
p20
aS'21.677'
p21
aS'-17.901'
p22
aS'0.999'
p23
aa(lp24
S'-9.701'
p25
aS'16.194'
p26
aS'-13.942'
p27
aS'0.000'
p28
aa(lp29
S'5.760'
p30
aS'22.046'
p31
aS'-20.956'
p32
aS'0.999'
p33
aa(lp34
S'3.604'
p35
aS'14.971'
p36
aS'-4.251'
p37
aS'-1.000'
p38
aa(lp39
S'-8.865'
p40
aS'-2.280'
p41
aS'-27.236'
p42
aS'1.000'
p43
aa(lp44
S'-5.499'
p45
aS'1.323'
p46
aS'-27.078'
p47
aS'-1.000'
p48
aa(lp49
S'5.911'
p50
aS'11.250'
p51
aS'-11.236'
p52
aS'-0.000'
p53
aa(lp54
S'22.517'
p55
aS'11.502'
p56
aS'-17.076'
p57
aS'-0.998'
p58
aa(lp59
S'18.527'
p60
aS'6.132'
p61
aS'-22.029'
p62
aS'0.999'
p63
aa(lp64
S'11.621'
p65
aS'12.439'
p66
aS'-22.847'
p67
aS'-0.998'
p68
aa(lp69
S'1.199'
p70
aS'0.915'
p71
aS'-23.497'
p72
aS'0.006'
p73
aa(lp74
S'-9.578'
p75
aS'10.061'
p76
aS'-19.838'
p77
aS'-0.738'
p78
aa(lp79
S'18.933'
p80
aS'15.305'
p81
aS'-22.748'
p82
aS'0.999'
p83
aa(lp84
S'19.278'
p85
aS'10.988'
p86
aS'-12.615'
p87
aS'1.000'
p88
aa(lp89
S'12.955'
p90
aS'2.526'
p91
aS'-22.680'
p92
aS'0.994'
p93
aa(lp94
S'18.904'
p95
aS'-5.190'
p96
aS'-12.741'
p97
aS'-0.999'
p98
aa(lp99
S'-8.187'
p100
aS'15.113'
p101
aS'-14.475'
p102
aS'0.000'
p103
aa(lp104
S'-9.261'
p105
aS'22.505'
p106
aS'-6.290'
p107
aS'-1.000'
p108
aa(lp109
S'13.004'
p110
aS'27.221'
p111
aS'-1.936'
p112
aS'1.000'
p113
aa(lp114
S'-4.471'
p115
aS'25.410'
p116
aS'-7.552'
p117
aS'0.999'
p118
aa(lp119
S'-7.553'
p120
aS'19.694'
p121
aS'-16.944'
p122
aS'-1.000'
p123
aa(lp124
S'-5.290'
p125
aS'13.417'
p126
aS'-2.500'
p127
aS'0.999'
p128
aa(lp129
S'8.725'
p130
aS'-7.634'
p131
aS'-6.892'
p132
aS'1.000'
p133
aa(lp134
S'15.685'
p135
aS'-16.965'
p136
aS'-4.788'
p137
aS'-1.000'
p138
aa(lp139
S'16.460'
p140
aS'-11.432'
p141
aS'-0.956'
p142
aS'-1.000'
p143
aa(lp144
S'7.502'
p145
aS'-10.825'
p146
aS'-4.247'
p147
aS'-1.000'
p148
aa(lp149
S'16.112'
p150
aS'-8.177'
p151
aS'1.789'
p152
aS'0.998'
p153
aa(lp154
S'13.214'
p155
aS'1.827'
p156
aS'-1.446'
p157
aS'1.000'
p158
aa(lp159
S'-4.587'
p160
aS'19.394'
p161
aS'-18.642'
p162
aS'1.000'
p163
aa(lp164
S'2.096'
p165
aS'32.111'
p166
aS'-16.394'
p167
aS'1.000'
p168
aa(lp169
S'16.284'
p170
aS'22.658'
p171
aS'22.669'
p172
aS'1.000'
p173
aa(lp174
S'12.145'
p175
aS'14.089'
p176
aS'24.571'
p177
aS'0.999'
p178
aa(lp179
S'9.369'
p180
aS'15.242'
p181
aS'15.390'
p182
aS'0.000'
p183
aa(lp184
S'-6.518'
p185
aS'19.872'
p186
aS'24.172'
p187
aS'0.999'
p188
aa(lp189
S'-4.014'
p190
aS'14.726'
p191
aS'5.426'
p192
aS'-0.998'
p193
aa(lp194
S'9.587'
p195
aS'-0.743'
p196
aS'30.821'
p197
aS'1.000'
p198
aa(lp199
S'5.077'
p200
aS'-1.286'
p201
aS'26.069'
p202
aS'-0.999'
p203
aa(lp204
S'-6.038'
p205
aS'10.363'
p206
aS'12.136'
p207
aS'-0.000'
p208
aa(lp209
S'24.154'
p210
aS'9.800'
p211
aS'17.742'
p212
aS'-0.999'
p213
aa(lp214
S'17.146'
p215
aS'10.993'
p216
aS'21.984'
p217
aS'0.999'
p218
aa(lp219
S'11.957'
p220
aS'12.005'
p221
aS'23.488'
p222
aS'-1.000'
p223
aa(lp224
S'-4.336'
p225
aS'1.306'
p226
aS'23.234'
p227
aS'0.001'
p228
aa(lp229
S'9.630'
p230
aS'8.857'
p231
aS'20.598'
p232
aS'-0.895'
p233
aa(lp234
S'14.804'
p235
aS'11.251'
p236
aS'20.901'
p237
aS'0.997'
p238
aa(lp239
S'18.773'
p240
aS'8.815'
p241
aS'11.875'
p242
aS'1.000'
p243
aa(lp244
S'12.887'
p245
aS'-0.599'
p246
aS'22.303'
p247
aS'0.989'
p248
aa(lp249
S'19.415'
p250
aS'-5.995'
p251
aS'12.697'
p252
aS'-0.997'
p253
aa(lp254
S'8.042'
p255
aS'13.833'
p256
aS'15.784'
p257
aS'0.000'
p258
aa(lp259
S'8.867'
p260
aS'20.836'
p261
aS'7.637'
p262
aS'-1.000'
p263
aa(lp264
S'13.691'
p265
aS'26.510'
p266
aS'3.564'
p267
aS'1.000'
p268
aa(lp269
S'3.448'
p270
aS'25.961'
p271
aS'13.476'
p272
aS'0.999'
p273
aa(lp274
S'7.618'
p275
aS'18.932'
p276
aS'18.089'
p277
aS'-0.998'
p278
aa(lp279
S'5.853'
p280
aS'15.431'
p281
aS'3.272'
p282
aS'0.998'
p283
aa(lp284
S'-9.549'
p285
aS'-8.104'
p286
aS'6.676'
p287
aS'1.000'
p288
aa(lp289
S'16.433'
p290
aS'-16.560'
p291
aS'2.865'
p292
aS'-1.000'
p293
aa(lp294
S'16.453'
p295
aS'-11.700'
p296
aS'-0.489'
p297
aS'-1.000'
p298
aa(lp299
S'-7.638'
p300
aS'-10.904'
p301
aS'3.679'
p302
aS'-1.000'
p303
aa(lp304
S'16.091'
p305
aS'-7.891'
p306
aS'-2.864'
p307
aS'0.996'
p308
aa(lp309
S'13.307'
p310
aS'1.543'
p311
aS'2.177'
p312
aS'0.999'
p313
aa(lp314
S'4.962'
p315
aS'19.322'
p316
aS'19.939'
p317
aS'1.000'
p318
aa(lp319
S'2.020'
p320
aS'21.122'
p321
aS'23.714'
p322
aS'1.000'
p323
aa(lp324
S'18.356'
p325
aS'-21.582'
p326
aS'17.900'
p327
aS'0.999'
p328
aa(lp329
S'-9.779'
p330
aS'-16.143'
p331
aS'13.938'
p332
aS'0.000'
p333
aa(lp334
S'5.654'
p335
aS'-22.072'
p336
aS'20.949'
p337
aS'0.999'
p338
aa(lp339
S'3.529'
p340
aS'-14.986'
p341
aS'4.245'
p342
aS'-1.000'
p343
aa(lp344
S'-8.847'
p345
aS'2.327'
p346
aS'27.232'
p347
aS'1.000'
p348
aa(lp349
S'-5.500'
p350
aS'-1.292'
p351
aS'27.074'
p352
aS'-1.000'
p353
aa(lp354
S'5.857'
p355
aS'-11.277'
p356
aS'11.229'
p357
aS'-0.000'
p358
aa(lp359
S'22.463'
p360
aS'-11.612'
p361
aS'17.065'
p362
aS'-0.998'
p363
aa(lp364
S'18.501'
p365
aS'-6.222'
p366
aS'22.019'
p367
aS'0.999'
p368
aa(lp369
S'11.564'
p370
aS'-12.494'
p371
aS'22.839'
p372
aS'-0.998'
p373
aa(lp374
S'1.200'
p375
aS'-0.918'
p376
aS'23.491'
p377
aS'0.006'
p378
aa(lp379
S'-9.623'
p380
aS'-10.010'
p381
aS'19.836'
p382
aS'-0.738'
p383
aa(lp384
S'19.004'
p385
aS'-15.207'
p386
aS'22.747'
p387
aS'0.999'
p388
aa(lp389
S'19.330'
p390
aS'-10.889'
p391
aS'12.614'
p392
aS'1.000'
p393
aa(lp394
S'12.948'
p395
aS'-2.588'
p396
aS'22.671'
p397
aS'0.994'
p398
aa(lp399
S'18.932'
p400
aS'5.098'
p401
aS'12.730'
p402
aS'-0.999'
p403
aa(lp404
S'-8.259'
p405
aS'-15.069'
p406
aS'14.471'
p407
aS'0.000'
p408
aa(lp409
S'-9.372'
p410
aS'-22.456'
p411
aS'6.286'
p412
aS'-1.000'
p413
aa(lp414
S'13.140'
p415
aS'-27.153'
p416
aS'1.933'
p417
aS'1.000'
p418
aa(lp419
S'-4.597'
p420
aS'-25.384'
p421
aS'7.548'
p422
aS'0.999'
p423
aa(lp424
S'-7.647'
p425
aS'-19.654'
p426
aS'16.941'
p427
aS'-1.000'
p428
aa(lp429
S'-5.357'
p430
aS'-13.388'
p431
aS'2.496'
p432
aS'0.999'
p433
aa(lp434
S'8.765'
p435
aS'7.593'
p436
aS'6.884'
p437
aS'1.000'
p438
aa(lp439
S'15.771'
p440
aS'16.888'
p441
aS'4.778'
p442
aS'-1.000'
p443
aa(lp444
S'16.517'
p445
aS'11.352'
p446
aS'0.946'
p447
aS'-1.000'
p448
aa(lp449
S'7.557'
p450
aS'10.790'
p451
aS'4.239'
p452
aS'-1.000'
p453
aa(lp454
S'16.152'
p455
aS'8.099'
p456
aS'-1.799'
p457
aS'0.998'
p458
aa(lp459
S'13.205'
p460
aS'-1.890'
p461
aS'1.437'
p462
aS'0.999'
p463
aa(lp464
S'-4.680'
p465
aS'-19.368'
p466
aS'18.638'
p467
aS'1.000'
p468
aa(lp469
S'1.939'
p470
aS'-32.119'
p471
aS'16.387'
p472
aS'1.000'
p473
aa(lp474
S'18.415'
p475
aS'-23.806'
p476
aS'-20.437'
p477
aS'1.000'
p478
aa(lp479
S'12.068'
p480
aS'-14.147'
p481
aS'-24.579'
p482
aS'0.999'
p483
aa(lp484
S'9.289'
p485
aS'-15.286'
p486
aS'-15.398'
p487
aS'0.000'
p488
aa(lp489
S'-6.623'
p490
aS'-19.837'
p491
aS'-24.176'
p492
aS'0.999'
p493
aa(lp494
S'-4.090'
p495
aS'-14.703'
p496
aS'-5.431'
p497
aS'-0.998'
p498
aa(lp499
S'9.583'
p500
aS'0.697'
p501
aS'-30.829'
p502
aS'1.000'
p503
aa(lp504
S'5.078'
p505
aS'1.263'
p506
aS'-26.075'
p507
aS'-0.999'
p508
aa(lp509
S'-6.093'
p510
aS'-10.330'
p511
aS'-12.141'
p512
aS'-0.000'
p513
aa(lp514
S'24.206'
p515
aS'-9.676'
p516
aS'-17.742'
p517
aS'-0.999'
p518
aa(lp519
S'17.206'
p520
aS'-10.904'
p521
aS'-21.986'
p522
aS'0.999'
p523
aa(lp524
S'12.023'
p525
aS'-11.942'
p526
aS'-23.491'
p527
aS'-1.000'
p528
aa(lp529
S'-4.348'
p530
aS'-1.281'
p531
aS'-23.238'
p532
aS'0.001'
p533
aa(lp534
S'9.581'
p535
aS'-8.903'
p536
aS'-20.605'
p537
aS'-0.897'
p538
aa(lp539
S'14.742'
p540
aS'-11.322'
p541
aS'-20.910'
p542
aS'0.997'
p543
aa(lp544
S'18.726'
p545
aS'-8.906'
p546
aS'-11.885'
p547
aS'1.000'
p548
aa(lp549
S'12.889'
p550
aS'0.667'
p551
aS'-22.305'
p552
aS'0.989'
p553
aa(lp554
S'19.387'
p555
aS'6.095'
p556
aS'-12.699'
p557
aS'-0.997'
p558
aa(lp559
S'7.969'
p560
aS'-13.871'
p561
aS'-15.792'
p562
aS'0.000'
p563
aa(lp564
S'8.761'
p565
aS'-20.877'
p566
aS'-7.645'
p567
aS'-1.000'
p568
aa(lp569
S'13.557'
p570
aS'-26.575'
p571
aS'-3.573'
p572
aS'1.000'
p573
aa(lp574
S'3.315'
p575
aS'-25.975'
p576
aS'-13.482'
p577
aS'0.999'
p578
aa(lp579
S'7.519'
p580
aS'-18.968'
p581
aS'-18.097'
p582
aS'-0.998'
p583
aa(lp584
S'5.775'
p585
aS'-15.458'
p586
aS'-3.279'
p587
aS'0.998'
p588
aa(lp589
S'-9.510'
p590
aS'8.154'
p591
aS'-6.679'
p592
aS'1.000'
p593
aa(lp594
S'16.350'
p595
aS'16.645'
p596
aS'-2.866'
p597
aS'-1.000'
p598
aa(lp599
S'16.393'
p600
aS'11.785'
p601
aS'0.487'
p602
aS'-1.000'
p603
aa(lp604
S'-7.584'
p605
aS'10.945'
p606
aS'-3.683'
p607
aS'-1.000'
p608
aa(lp609
S'16.050'
p610
aS'7.974'
p611
aS'2.862'
p612
aS'0.996'
p613
aa(lp614
S'13.315'
p615
aS'-1.474'
p616
aS'-2.179'
p617
aS'1.000'
p618
aa(lp619
S'4.860'
p620
aS'-19.344'
p621
aS'-19.946'
p622
aS'1.000'
p623
aa(lp624
S'1.908'
p625
aS'-21.129'
p626
aS'-23.720'
p627
aS'1.000'
p628
aa(lp629
S'1.804'
p630
aS'26.809'
p631
aS'-23.032'
p632
aS'-1.000'
p633
aa(lp634
S'1.923'
p635
aS'26.843'
p636
aS'21.657'
p637
aS'-1.000'
p638
aa(lp639
S'1.675'
p640
aS'-26.815'
p641
aS'23.026'
p642
aS'-1.000'
p643
aa(lp644
S'1.783'
p645
aS'-26.849'
p646
aS'-21.663'
p647
aS'-1.000'
p648
aa(lp649
S'14.401'
p650
aS'16.436'
p651
aS'-18.345'
p652
aS'0.420'
p653
aa(lp654
S'16.255'
p655
aS'18.126'
p656
aS'16.984'
p657
aS'0.529'
p658
aa(lp659
S'14.479'
p660
aS'-16.361'
p661
aS'18.343'
p662
aS'0.420'
p663
aa(lp664
S'16.160'
p665
aS'-18.205'
p666
aS'-16.994'
p667
aS'0.523'
p668
aasS'num_qi'
p669
I130
sS'num_prot'
p670
I4000
sS'nw_rad'
p671
F10.0
s.