(dp0
S'comment'
p1
S'# BioFET-SIM Calculation\r\n# Date of calculation: 2012-02-21 18:34:05\r\n# Calculation target: 1AVD\r\n# pH: 7.4\r\n# <Add comment here>\r\n                                    '
p2
sS'x_lbl'
p3
S'L_d'
p4
sS'rho'
p5
(lp6
(lp7
S'18.251'
p8
aS'21.677'
p9
aS'-17.901'
p10
aS'0.999'
p11
aa(lp12
S'-9.701'
p13
aS'16.194'
p14
aS'-13.942'
p15
aS'0.000'
p16
aa(lp17
S'5.760'
p18
aS'22.046'
p19
aS'-20.956'
p20
aS'0.999'
p21
aa(lp22
S'3.604'
p23
aS'14.971'
p24
aS'-4.251'
p25
aS'-1.000'
p26
aa(lp27
S'-8.865'
p28
aS'-2.280'
p29
aS'-27.236'
p30
aS'1.000'
p31
aa(lp32
S'-5.499'
p33
aS'1.323'
p34
aS'-27.078'
p35
aS'-1.000'
p36
aa(lp37
S'5.911'
p38
aS'11.250'
p39
aS'-11.236'
p40
aS'-0.000'
p41
aa(lp42
S'22.517'
p43
aS'11.502'
p44
aS'-17.076'
p45
aS'-0.998'
p46
aa(lp47
S'18.527'
p48
aS'6.132'
p49
aS'-22.029'
p50
aS'0.999'
p51
aa(lp52
S'11.621'
p53
aS'12.439'
p54
aS'-22.847'
p55
aS'-0.998'
p56
aa(lp57
S'1.199'
p58
aS'0.915'
p59
aS'-23.497'
p60
aS'0.006'
p61
aa(lp62
S'-9.578'
p63
aS'10.061'
p64
aS'-19.838'
p65
aS'-0.738'
p66
aa(lp67
S'18.933'
p68
aS'15.305'
p69
aS'-22.748'
p70
aS'0.999'
p71
aa(lp72
S'19.278'
p73
aS'10.988'
p74
aS'-12.615'
p75
aS'1.000'
p76
aa(lp77
S'12.955'
p78
aS'2.526'
p79
aS'-22.680'
p80
aS'0.994'
p81
aa(lp82
S'18.904'
p83
aS'-5.190'
p84
aS'-12.741'
p85
aS'-0.999'
p86
aa(lp87
S'-8.187'
p88
aS'15.113'
p89
aS'-14.475'
p90
aS'0.000'
p91
aa(lp92
S'-9.261'
p93
aS'22.505'
p94
aS'-6.290'
p95
aS'-1.000'
p96
aa(lp97
S'13.004'
p98
aS'27.221'
p99
aS'-1.936'
p100
aS'1.000'
p101
aa(lp102
S'-4.471'
p103
aS'25.410'
p104
aS'-7.552'
p105
aS'0.999'
p106
aa(lp107
S'-7.553'
p108
aS'19.694'
p109
aS'-16.944'
p110
aS'-1.000'
p111
aa(lp112
S'-5.290'
p113
aS'13.417'
p114
aS'-2.500'
p115
aS'0.999'
p116
aa(lp117
S'8.725'
p118
aS'-7.634'
p119
aS'-6.892'
p120
aS'1.000'
p121
aa(lp122
S'15.685'
p123
aS'-16.965'
p124
aS'-4.788'
p125
aS'-1.000'
p126
aa(lp127
S'16.460'
p128
aS'-11.432'
p129
aS'-0.956'
p130
aS'-1.000'
p131
aa(lp132
S'7.502'
p133
aS'-10.825'
p134
aS'-4.247'
p135
aS'-1.000'
p136
aa(lp137
S'16.112'
p138
aS'-8.177'
p139
aS'1.789'
p140
aS'0.998'
p141
aa(lp142
S'13.214'
p143
aS'1.827'
p144
aS'-1.446'
p145
aS'1.000'
p146
aa(lp147
S'-4.587'
p148
aS'19.394'
p149
aS'-18.642'
p150
aS'1.000'
p151
aa(lp152
S'2.096'
p153
aS'32.111'
p154
aS'-16.394'
p155
aS'1.000'
p156
aa(lp157
S'16.284'
p158
aS'22.658'
p159
aS'22.669'
p160
aS'1.000'
p161
aa(lp162
S'12.145'
p163
aS'14.089'
p164
aS'24.571'
p165
aS'0.999'
p166
aa(lp167
S'9.369'
p168
aS'15.242'
p169
aS'15.390'
p170
aS'0.000'
p171
aa(lp172
S'-6.518'
p173
aS'19.872'
p174
aS'24.172'
p175
aS'0.999'
p176
aa(lp177
S'-4.014'
p178
aS'14.726'
p179
aS'5.426'
p180
aS'-0.998'
p181
aa(lp182
S'9.587'
p183
aS'-0.743'
p184
aS'30.821'
p185
aS'1.000'
p186
aa(lp187
S'5.077'
p188
aS'-1.286'
p189
aS'26.069'
p190
aS'-0.999'
p191
aa(lp192
S'-6.038'
p193
aS'10.363'
p194
aS'12.136'
p195
aS'-0.000'
p196
aa(lp197
S'24.154'
p198
aS'9.800'
p199
aS'17.742'
p200
aS'-0.999'
p201
aa(lp202
S'17.146'
p203
aS'10.993'
p204
aS'21.984'
p205
aS'0.999'
p206
aa(lp207
S'11.957'
p208
aS'12.005'
p209
aS'23.488'
p210
aS'-1.000'
p211
aa(lp212
S'-4.336'
p213
aS'1.306'
p214
aS'23.234'
p215
aS'0.001'
p216
aa(lp217
S'9.630'
p218
aS'8.857'
p219
aS'20.598'
p220
aS'-0.895'
p221
aa(lp222
S'14.804'
p223
aS'11.251'
p224
aS'20.901'
p225
aS'0.997'
p226
aa(lp227
S'18.773'
p228
aS'8.815'
p229
aS'11.875'
p230
aS'1.000'
p231
aa(lp232
S'12.887'
p233
aS'-0.599'
p234
aS'22.303'
p235
aS'0.989'
p236
aa(lp237
S'19.415'
p238
aS'-5.995'
p239
aS'12.697'
p240
aS'-0.997'
p241
aa(lp242
S'8.042'
p243
aS'13.833'
p244
aS'15.784'
p245
aS'0.000'
p246
aa(lp247
S'8.867'
p248
aS'20.836'
p249
aS'7.637'
p250
aS'-1.000'
p251
aa(lp252
S'13.691'
p253
aS'26.510'
p254
aS'3.564'
p255
aS'1.000'
p256
aa(lp257
S'3.448'
p258
aS'25.961'
p259
aS'13.476'
p260
aS'0.999'
p261
aa(lp262
S'7.618'
p263
aS'18.932'
p264
aS'18.089'
p265
aS'-0.998'
p266
aa(lp267
S'5.853'
p268
aS'15.431'
p269
aS'3.272'
p270
aS'0.998'
p271
aa(lp272
S'-9.549'
p273
aS'-8.104'
p274
aS'6.676'
p275
aS'1.000'
p276
aa(lp277
S'16.433'
p278
aS'-16.560'
p279
aS'2.865'
p280
aS'-1.000'
p281
aa(lp282
S'16.453'
p283
aS'-11.700'
p284
aS'-0.489'
p285
aS'-1.000'
p286
aa(lp287
S'-7.638'
p288
aS'-10.904'
p289
aS'3.679'
p290
aS'-1.000'
p291
aa(lp292
S'16.091'
p293
aS'-7.891'
p294
aS'-2.864'
p295
aS'0.996'
p296
aa(lp297
S'13.307'
p298
aS'1.543'
p299
aS'2.177'
p300
aS'0.999'
p301
aa(lp302
S'4.962'
p303
aS'19.322'
p304
aS'19.939'
p305
aS'1.000'
p306
aa(lp307
S'2.020'
p308
aS'21.122'
p309
aS'23.714'
p310
aS'1.000'
p311
aa(lp312
S'18.356'
p313
aS'-21.582'
p314
aS'17.900'
p315
aS'0.999'
p316
aa(lp317
S'-9.779'
p318
aS'-16.143'
p319
aS'13.938'
p320
aS'0.000'
p321
aa(lp322
S'5.654'
p323
aS'-22.072'
p324
aS'20.949'
p325
aS'0.999'
p326
aa(lp327
S'3.529'
p328
aS'-14.986'
p329
aS'4.245'
p330
aS'-1.000'
p331
aa(lp332
S'-8.847'
p333
aS'2.327'
p334
aS'27.232'
p335
aS'1.000'
p336
aa(lp337
S'-5.500'
p338
aS'-1.292'
p339
aS'27.074'
p340
aS'-1.000'
p341
aa(lp342
S'5.857'
p343
aS'-11.277'
p344
aS'11.229'
p345
aS'-0.000'
p346
aa(lp347
S'22.463'
p348
aS'-11.612'
p349
aS'17.065'
p350
aS'-0.998'
p351
aa(lp352
S'18.501'
p353
aS'-6.222'
p354
aS'22.019'
p355
aS'0.999'
p356
aa(lp357
S'11.564'
p358
aS'-12.494'
p359
aS'22.839'
p360
aS'-0.998'
p361
aa(lp362
S'1.200'
p363
aS'-0.918'
p364
aS'23.491'
p365
aS'0.006'
p366
aa(lp367
S'-9.623'
p368
aS'-10.010'
p369
aS'19.836'
p370
aS'-0.738'
p371
aa(lp372
S'19.004'
p373
aS'-15.207'
p374
aS'22.747'
p375
aS'0.999'
p376
aa(lp377
S'19.330'
p378
aS'-10.889'
p379
aS'12.614'
p380
aS'1.000'
p381
aa(lp382
S'12.948'
p383
aS'-2.588'
p384
aS'22.671'
p385
aS'0.994'
p386
aa(lp387
S'18.932'
p388
aS'5.098'
p389
aS'12.730'
p390
aS'-0.999'
p391
aa(lp392
S'-8.259'
p393
aS'-15.069'
p394
aS'14.471'
p395
aS'0.000'
p396
aa(lp397
S'-9.372'
p398
aS'-22.456'
p399
aS'6.286'
p400
aS'-1.000'
p401
aa(lp402
S'13.140'
p403
aS'-27.153'
p404
aS'1.933'
p405
aS'1.000'
p406
aa(lp407
S'-4.597'
p408
aS'-25.384'
p409
aS'7.548'
p410
aS'0.999'
p411
aa(lp412
S'-7.647'
p413
aS'-19.654'
p414
aS'16.941'
p415
aS'-1.000'
p416
aa(lp417
S'-5.357'
p418
aS'-13.388'
p419
aS'2.496'
p420
aS'0.999'
p421
aa(lp422
S'8.765'
p423
aS'7.593'
p424
aS'6.884'
p425
aS'1.000'
p426
aa(lp427
S'15.771'
p428
aS'16.888'
p429
aS'4.778'
p430
aS'-1.000'
p431
aa(lp432
S'16.517'
p433
aS'11.352'
p434
aS'0.946'
p435
aS'-1.000'
p436
aa(lp437
S'7.557'
p438
aS'10.790'
p439
aS'4.239'
p440
aS'-1.000'
p441
aa(lp442
S'16.152'
p443
aS'8.099'
p444
aS'-1.799'
p445
aS'0.998'
p446
aa(lp447
S'13.205'
p448
aS'-1.890'
p449
aS'1.437'
p450
aS'0.999'
p451
aa(lp452
S'-4.680'
p453
aS'-19.368'
p454
aS'18.638'
p455
aS'1.000'
p456
aa(lp457
S'1.939'
p458
aS'-32.119'
p459
aS'16.387'
p460
aS'1.000'
p461
aa(lp462
S'18.415'
p463
aS'-23.806'
p464
aS'-20.437'
p465
aS'1.000'
p466
aa(lp467
S'12.068'
p468
aS'-14.147'
p469
aS'-24.579'
p470
aS'0.999'
p471
aa(lp472
S'9.289'
p473
aS'-15.286'
p474
aS'-15.398'
p475
aS'0.000'
p476
aa(lp477
S'-6.623'
p478
aS'-19.837'
p479
aS'-24.176'
p480
aS'0.999'
p481
aa(lp482
S'-4.090'
p483
aS'-14.703'
p484
aS'-5.431'
p485
aS'-0.998'
p486
aa(lp487
S'9.583'
p488
aS'0.697'
p489
aS'-30.829'
p490
aS'1.000'
p491
aa(lp492
S'5.078'
p493
aS'1.263'
p494
aS'-26.075'
p495
aS'-0.999'
p496
aa(lp497
S'-6.093'
p498
aS'-10.330'
p499
aS'-12.141'
p500
aS'-0.000'
p501
aa(lp502
S'24.206'
p503
aS'-9.676'
p504
aS'-17.742'
p505
aS'-0.999'
p506
aa(lp507
S'17.206'
p508
aS'-10.904'
p509
aS'-21.986'
p510
aS'0.999'
p511
aa(lp512
S'12.023'
p513
aS'-11.942'
p514
aS'-23.491'
p515
aS'-1.000'
p516
aa(lp517
S'-4.348'
p518
aS'-1.281'
p519
aS'-23.238'
p520
aS'0.001'
p521
aa(lp522
S'9.581'
p523
aS'-8.903'
p524
aS'-20.605'
p525
aS'-0.897'
p526
aa(lp527
S'14.742'
p528
aS'-11.322'
p529
aS'-20.910'
p530
aS'0.997'
p531
aa(lp532
S'18.726'
p533
aS'-8.906'
p534
aS'-11.885'
p535
aS'1.000'
p536
aa(lp537
S'12.889'
p538
aS'0.667'
p539
aS'-22.305'
p540
aS'0.989'
p541
aa(lp542
S'19.387'
p543
aS'6.095'
p544
aS'-12.699'
p545
aS'-0.997'
p546
aa(lp547
S'7.969'
p548
aS'-13.871'
p549
aS'-15.792'
p550
aS'0.000'
p551
aa(lp552
S'8.761'
p553
aS'-20.877'
p554
aS'-7.645'
p555
aS'-1.000'
p556
aa(lp557
S'13.557'
p558
aS'-26.575'
p559
aS'-3.573'
p560
aS'1.000'
p561
aa(lp562
S'3.315'
p563
aS'-25.975'
p564
aS'-13.482'
p565
aS'0.999'
p566
aa(lp567
S'7.519'
p568
aS'-18.968'
p569
aS'-18.097'
p570
aS'-0.998'
p571
aa(lp572
S'5.775'
p573
aS'-15.458'
p574
aS'-3.279'
p575
aS'0.998'
p576
aa(lp577
S'-9.510'
p578
aS'8.154'
p579
aS'-6.679'
p580
aS'1.000'
p581
aa(lp582
S'16.350'
p583
aS'16.645'
p584
aS'-2.866'
p585
aS'-1.000'
p586
aa(lp587
S'16.393'
p588
aS'11.785'
p589
aS'0.487'
p590
aS'-1.000'
p591
aa(lp592
S'-7.584'
p593
aS'10.945'
p594
aS'-3.683'
p595
aS'-1.000'
p596
aa(lp597
S'16.050'
p598
aS'7.974'
p599
aS'2.862'
p600
aS'0.996'
p601
aa(lp602
S'13.315'
p603
aS'-1.474'
p604
aS'-2.179'
p605
aS'1.000'
p606
aa(lp607
S'4.860'
p608
aS'-19.344'
p609
aS'-19.946'
p610
aS'1.000'
p611
aa(lp612
S'1.908'
p613
aS'-21.129'
p614
aS'-23.720'
p615
aS'1.000'
p616
aa(lp617
S'1.804'
p618
aS'26.809'
p619
aS'-23.032'
p620
aS'-1.000'
p621
aa(lp622
S'1.923'
p623
aS'26.843'
p624
aS'21.657'
p625
aS'-1.000'
p626
aa(lp627
S'1.675'
p628
aS'-26.815'
p629
aS'23.026'
p630
aS'-1.000'
p631
aa(lp632
S'1.783'
p633
aS'-26.849'
p634
aS'-21.663'
p635
aS'-1.000'
p636
aa(lp637
S'14.401'
p638
aS'16.436'
p639
aS'-18.345'
p640
aS'0.420'
p641
aa(lp642
S'16.255'
p643
aS'18.126'
p644
aS'16.984'
p645
aS'0.529'
p646
aa(lp647
S'14.479'
p648
aS'-16.361'
p649
aS'18.343'
p650
aS'0.420'
p651
aa(lp652
S'16.160'
p653
aS'-18.205'
p654
aS'-16.994'
p655
aS'0.523'
p656
aasS'target'
p657
S'1AVD'
p658
sS'L_d'
p659
F2.0
sS'eps_2'
p660
F3.8999999999999999
sS'eps_3'
p661
F78.0
sS'eps_1'
p662
F12.0
sS'n_0'
p663
F1.11e+24
sS'L_tf'
p664
F2.04
sS'nw_rad'
p665
F10.0
sS'mu'
p666
F0.01
sS'nw_len'
p667
F2000.0
sS'lay_ox'
p668
F2.0
sS'x_max'
p669
F3.0
sS'nw_type'
p670
S'P'
p671
sS'x_min'
p672
F1.0
sS'num_qi'
p673
I130
sS'num_prot'
p674
I4000
sS'lay_bf'
p675
F1.0
s.