(dp0
S'comment'
p1
S'# BioFET-SIM Calculation\r\n# Calculation target: 1AVD\r\n# pH: 7.4\r\n# Description: '
p2
sS'nw_len'
p3
F2000.0
sS'target'
p4
S'1AVD'
p5
sS'L_d'
p6
F2.0
sS'eps_2'
p7
F3.8999999999999999
sS'eps_3'
p8
F78.0
sS'eps_1'
p9
F12.0
sS'n_0'
p10
F1.11e+24
sS'L_tf'
p11
F2.04
sS'nw_rad'
p12
F10.0
sS'mu'
p13
F0.01
sS'rho'
p14
(lp15
(lp16
S'18.251'
p17
aS'21.677'
p18
aS'-17.901'
p19
aS'0.999'
p20
aa(lp21
S'-9.701'
p22
aS'16.194'
p23
aS'-13.942'
p24
aS'0.000'
p25
aa(lp26
S'5.760'
p27
aS'22.046'
p28
aS'-20.956'
p29
aS'0.999'
p30
aa(lp31
S'3.604'
p32
aS'14.971'
p33
aS'-4.251'
p34
aS'-1.000'
p35
aa(lp36
S'-8.865'
p37
aS'-2.280'
p38
aS'-27.236'
p39
aS'1.000'
p40
aa(lp41
S'-5.499'
p42
aS'1.323'
p43
aS'-27.078'
p44
aS'-1.000'
p45
aa(lp46
S'5.911'
p47
aS'11.250'
p48
aS'-11.236'
p49
aS'-0.000'
p50
aa(lp51
S'22.517'
p52
aS'11.502'
p53
aS'-17.076'
p54
aS'-0.998'
p55
aa(lp56
S'18.527'
p57
aS'6.132'
p58
aS'-22.029'
p59
aS'0.999'
p60
aa(lp61
S'11.621'
p62
aS'12.439'
p63
aS'-22.847'
p64
aS'-0.998'
p65
aa(lp66
S'1.199'
p67
aS'0.915'
p68
aS'-23.497'
p69
aS'0.006'
p70
aa(lp71
S'-9.578'
p72
aS'10.061'
p73
aS'-19.838'
p74
aS'-0.738'
p75
aa(lp76
S'18.933'
p77
aS'15.305'
p78
aS'-22.748'
p79
aS'0.999'
p80
aa(lp81
S'19.278'
p82
aS'10.988'
p83
aS'-12.615'
p84
aS'1.000'
p85
aa(lp86
S'12.955'
p87
aS'2.526'
p88
aS'-22.680'
p89
aS'0.994'
p90
aa(lp91
S'18.904'
p92
aS'-5.190'
p93
aS'-12.741'
p94
aS'-0.999'
p95
aa(lp96
S'-8.187'
p97
aS'15.113'
p98
aS'-14.475'
p99
aS'0.000'
p100
aa(lp101
S'-9.261'
p102
aS'22.505'
p103
aS'-6.290'
p104
aS'-1.000'
p105
aa(lp106
S'13.004'
p107
aS'27.221'
p108
aS'-1.936'
p109
aS'1.000'
p110
aa(lp111
S'-4.471'
p112
aS'25.410'
p113
aS'-7.552'
p114
aS'0.999'
p115
aa(lp116
S'-7.553'
p117
aS'19.694'
p118
aS'-16.944'
p119
aS'-1.000'
p120
aa(lp121
S'-5.290'
p122
aS'13.417'
p123
aS'-2.500'
p124
aS'0.999'
p125
aa(lp126
S'8.725'
p127
aS'-7.634'
p128
aS'-6.892'
p129
aS'1.000'
p130
aa(lp131
S'15.685'
p132
aS'-16.965'
p133
aS'-4.788'
p134
aS'-1.000'
p135
aa(lp136
S'16.460'
p137
aS'-11.432'
p138
aS'-0.956'
p139
aS'-1.000'
p140
aa(lp141
S'7.502'
p142
aS'-10.825'
p143
aS'-4.247'
p144
aS'-1.000'
p145
aa(lp146
S'16.112'
p147
aS'-8.177'
p148
aS'1.789'
p149
aS'0.998'
p150
aa(lp151
S'13.214'
p152
aS'1.827'
p153
aS'-1.446'
p154
aS'1.000'
p155
aa(lp156
S'-4.587'
p157
aS'19.394'
p158
aS'-18.642'
p159
aS'1.000'
p160
aa(lp161
S'2.096'
p162
aS'32.111'
p163
aS'-16.394'
p164
aS'1.000'
p165
aa(lp166
S'16.284'
p167
aS'22.658'
p168
aS'22.669'
p169
aS'1.000'
p170
aa(lp171
S'12.145'
p172
aS'14.089'
p173
aS'24.571'
p174
aS'0.999'
p175
aa(lp176
S'9.369'
p177
aS'15.242'
p178
aS'15.390'
p179
aS'0.000'
p180
aa(lp181
S'-6.518'
p182
aS'19.872'
p183
aS'24.172'
p184
aS'0.999'
p185
aa(lp186
S'-4.014'
p187
aS'14.726'
p188
aS'5.426'
p189
aS'-0.998'
p190
aa(lp191
S'9.587'
p192
aS'-0.743'
p193
aS'30.821'
p194
aS'1.000'
p195
aa(lp196
S'5.077'
p197
aS'-1.286'
p198
aS'26.069'
p199
aS'-0.999'
p200
aa(lp201
S'-6.038'
p202
aS'10.363'
p203
aS'12.136'
p204
aS'-0.000'
p205
aa(lp206
S'24.154'
p207
aS'9.800'
p208
aS'17.742'
p209
aS'-0.999'
p210
aa(lp211
S'17.146'
p212
aS'10.993'
p213
aS'21.984'
p214
aS'0.999'
p215
aa(lp216
S'11.957'
p217
aS'12.005'
p218
aS'23.488'
p219
aS'-1.000'
p220
aa(lp221
S'-4.336'
p222
aS'1.306'
p223
aS'23.234'
p224
aS'0.001'
p225
aa(lp226
S'9.630'
p227
aS'8.857'
p228
aS'20.598'
p229
aS'-0.895'
p230
aa(lp231
S'14.804'
p232
aS'11.251'
p233
aS'20.901'
p234
aS'0.997'
p235
aa(lp236
S'18.773'
p237
aS'8.815'
p238
aS'11.875'
p239
aS'1.000'
p240
aa(lp241
S'12.887'
p242
aS'-0.599'
p243
aS'22.303'
p244
aS'0.989'
p245
aa(lp246
S'19.415'
p247
aS'-5.995'
p248
aS'12.697'
p249
aS'-0.997'
p250
aa(lp251
S'8.042'
p252
aS'13.833'
p253
aS'15.784'
p254
aS'0.000'
p255
aa(lp256
S'8.867'
p257
aS'20.836'
p258
aS'7.637'
p259
aS'-1.000'
p260
aa(lp261
S'13.691'
p262
aS'26.510'
p263
aS'3.564'
p264
aS'1.000'
p265
aa(lp266
S'3.448'
p267
aS'25.961'
p268
aS'13.476'
p269
aS'0.999'
p270
aa(lp271
S'7.618'
p272
aS'18.932'
p273
aS'18.089'
p274
aS'-0.998'
p275
aa(lp276
S'5.853'
p277
aS'15.431'
p278
aS'3.272'
p279
aS'0.998'
p280
aa(lp281
S'-9.549'
p282
aS'-8.104'
p283
aS'6.676'
p284
aS'1.000'
p285
aa(lp286
S'16.433'
p287
aS'-16.560'
p288
aS'2.865'
p289
aS'-1.000'
p290
aa(lp291
S'16.453'
p292
aS'-11.700'
p293
aS'-0.489'
p294
aS'-1.000'
p295
aa(lp296
S'-7.638'
p297
aS'-10.904'
p298
aS'3.679'
p299
aS'-1.000'
p300
aa(lp301
S'16.091'
p302
aS'-7.891'
p303
aS'-2.864'
p304
aS'0.996'
p305
aa(lp306
S'13.307'
p307
aS'1.543'
p308
aS'2.177'
p309
aS'0.999'
p310
aa(lp311
S'4.962'
p312
aS'19.322'
p313
aS'19.939'
p314
aS'1.000'
p315
aa(lp316
S'2.020'
p317
aS'21.122'
p318
aS'23.714'
p319
aS'1.000'
p320
aa(lp321
S'18.356'
p322
aS'-21.582'
p323
aS'17.900'
p324
aS'0.999'
p325
aa(lp326
S'-9.779'
p327
aS'-16.143'
p328
aS'13.938'
p329
aS'0.000'
p330
aa(lp331
S'5.654'
p332
aS'-22.072'
p333
aS'20.949'
p334
aS'0.999'
p335
aa(lp336
S'3.529'
p337
aS'-14.986'
p338
aS'4.245'
p339
aS'-1.000'
p340
aa(lp341
S'-8.847'
p342
aS'2.327'
p343
aS'27.232'
p344
aS'1.000'
p345
aa(lp346
S'-5.500'
p347
aS'-1.292'
p348
aS'27.074'
p349
aS'-1.000'
p350
aa(lp351
S'5.857'
p352
aS'-11.277'
p353
aS'11.229'
p354
aS'-0.000'
p355
aa(lp356
S'22.463'
p357
aS'-11.612'
p358
aS'17.065'
p359
aS'-0.998'
p360
aa(lp361
S'18.501'
p362
aS'-6.222'
p363
aS'22.019'
p364
aS'0.999'
p365
aa(lp366
S'11.564'
p367
aS'-12.494'
p368
aS'22.839'
p369
aS'-0.998'
p370
aa(lp371
S'1.200'
p372
aS'-0.918'
p373
aS'23.491'
p374
aS'0.006'
p375
aa(lp376
S'-9.623'
p377
aS'-10.010'
p378
aS'19.836'
p379
aS'-0.738'
p380
aa(lp381
S'19.004'
p382
aS'-15.207'
p383
aS'22.747'
p384
aS'0.999'
p385
aa(lp386
S'19.330'
p387
aS'-10.889'
p388
aS'12.614'
p389
aS'1.000'
p390
aa(lp391
S'12.948'
p392
aS'-2.588'
p393
aS'22.671'
p394
aS'0.994'
p395
aa(lp396
S'18.932'
p397
aS'5.098'
p398
aS'12.730'
p399
aS'-0.999'
p400
aa(lp401
S'-8.259'
p402
aS'-15.069'
p403
aS'14.471'
p404
aS'0.000'
p405
aa(lp406
S'-9.372'
p407
aS'-22.456'
p408
aS'6.286'
p409
aS'-1.000'
p410
aa(lp411
S'13.140'
p412
aS'-27.153'
p413
aS'1.933'
p414
aS'1.000'
p415
aa(lp416
S'-4.597'
p417
aS'-25.384'
p418
aS'7.548'
p419
aS'0.999'
p420
aa(lp421
S'-7.647'
p422
aS'-19.654'
p423
aS'16.941'
p424
aS'-1.000'
p425
aa(lp426
S'-5.357'
p427
aS'-13.388'
p428
aS'2.496'
p429
aS'0.999'
p430
aa(lp431
S'8.765'
p432
aS'7.593'
p433
aS'6.884'
p434
aS'1.000'
p435
aa(lp436
S'15.771'
p437
aS'16.888'
p438
aS'4.778'
p439
aS'-1.000'
p440
aa(lp441
S'16.517'
p442
aS'11.352'
p443
aS'0.946'
p444
aS'-1.000'
p445
aa(lp446
S'7.557'
p447
aS'10.790'
p448
aS'4.239'
p449
aS'-1.000'
p450
aa(lp451
S'16.152'
p452
aS'8.099'
p453
aS'-1.799'
p454
aS'0.998'
p455
aa(lp456
S'13.205'
p457
aS'-1.890'
p458
aS'1.437'
p459
aS'0.999'
p460
aa(lp461
S'-4.680'
p462
aS'-19.368'
p463
aS'18.638'
p464
aS'1.000'
p465
aa(lp466
S'1.939'
p467
aS'-32.119'
p468
aS'16.387'
p469
aS'1.000'
p470
aa(lp471
S'18.415'
p472
aS'-23.806'
p473
aS'-20.437'
p474
aS'1.000'
p475
aa(lp476
S'12.068'
p477
aS'-14.147'
p478
aS'-24.579'
p479
aS'0.999'
p480
aa(lp481
S'9.289'
p482
aS'-15.286'
p483
aS'-15.398'
p484
aS'0.000'
p485
aa(lp486
S'-6.623'
p487
aS'-19.837'
p488
aS'-24.176'
p489
aS'0.999'
p490
aa(lp491
S'-4.090'
p492
aS'-14.703'
p493
aS'-5.431'
p494
aS'-0.998'
p495
aa(lp496
S'9.583'
p497
aS'0.697'
p498
aS'-30.829'
p499
aS'1.000'
p500
aa(lp501
S'5.078'
p502
aS'1.263'
p503
aS'-26.075'
p504
aS'-0.999'
p505
aa(lp506
S'-6.093'
p507
aS'-10.330'
p508
aS'-12.141'
p509
aS'-0.000'
p510
aa(lp511
S'24.206'
p512
aS'-9.676'
p513
aS'-17.742'
p514
aS'-0.999'
p515
aa(lp516
S'17.206'
p517
aS'-10.904'
p518
aS'-21.986'
p519
aS'0.999'
p520
aa(lp521
S'12.023'
p522
aS'-11.942'
p523
aS'-23.491'
p524
aS'-1.000'
p525
aa(lp526
S'-4.348'
p527
aS'-1.281'
p528
aS'-23.238'
p529
aS'0.001'
p530
aa(lp531
S'9.581'
p532
aS'-8.903'
p533
aS'-20.605'
p534
aS'-0.897'
p535
aa(lp536
S'14.742'
p537
aS'-11.322'
p538
aS'-20.910'
p539
aS'0.997'
p540
aa(lp541
S'18.726'
p542
aS'-8.906'
p543
aS'-11.885'
p544
aS'1.000'
p545
aa(lp546
S'12.889'
p547
aS'0.667'
p548
aS'-22.305'
p549
aS'0.989'
p550
aa(lp551
S'19.387'
p552
aS'6.095'
p553
aS'-12.699'
p554
aS'-0.997'
p555
aa(lp556
S'7.969'
p557
aS'-13.871'
p558
aS'-15.792'
p559
aS'0.000'
p560
aa(lp561
S'8.761'
p562
aS'-20.877'
p563
aS'-7.645'
p564
aS'-1.000'
p565
aa(lp566
S'13.557'
p567
aS'-26.575'
p568
aS'-3.573'
p569
aS'1.000'
p570
aa(lp571
S'3.315'
p572
aS'-25.975'
p573
aS'-13.482'
p574
aS'0.999'
p575
aa(lp576
S'7.519'
p577
aS'-18.968'
p578
aS'-18.097'
p579
aS'-0.998'
p580
aa(lp581
S'5.775'
p582
aS'-15.458'
p583
aS'-3.279'
p584
aS'0.998'
p585
aa(lp586
S'-9.510'
p587
aS'8.154'
p588
aS'-6.679'
p589
aS'1.000'
p590
aa(lp591
S'16.350'
p592
aS'16.645'
p593
aS'-2.866'
p594
aS'-1.000'
p595
aa(lp596
S'16.393'
p597
aS'11.785'
p598
aS'0.487'
p599
aS'-1.000'
p600
aa(lp601
S'-7.584'
p602
aS'10.945'
p603
aS'-3.683'
p604
aS'-1.000'
p605
aa(lp606
S'16.050'
p607
aS'7.974'
p608
aS'2.862'
p609
aS'0.996'
p610
aa(lp611
S'13.315'
p612
aS'-1.474'
p613
aS'-2.179'
p614
aS'1.000'
p615
aa(lp616
S'4.860'
p617
aS'-19.344'
p618
aS'-19.946'
p619
aS'1.000'
p620
aa(lp621
S'1.908'
p622
aS'-21.129'
p623
aS'-23.720'
p624
aS'1.000'
p625
aa(lp626
S'1.804'
p627
aS'26.809'
p628
aS'-23.032'
p629
aS'-1.000'
p630
aa(lp631
S'1.923'
p632
aS'26.843'
p633
aS'21.657'
p634
aS'-1.000'
p635
aa(lp636
S'1.675'
p637
aS'-26.815'
p638
aS'23.026'
p639
aS'-1.000'
p640
aa(lp641
S'1.783'
p642
aS'-26.849'
p643
aS'-21.663'
p644
aS'-1.000'
p645
aa(lp646
S'14.401'
p647
aS'16.436'
p648
aS'-18.345'
p649
aS'0.420'
p650
aa(lp651
S'16.255'
p652
aS'18.126'
p653
aS'16.984'
p654
aS'0.529'
p655
aa(lp656
S'14.479'
p657
aS'-16.361'
p658
aS'18.343'
p659
aS'0.420'
p660
aa(lp661
S'16.160'
p662
aS'-18.205'
p663
aS'-16.994'
p664
aS'0.523'
p665
aasS'nw_type'
p666
S'P'
p667
sS'lay_ox'
p668
F2.0
sS'num_qi'
p669
I130
sS'num_prot'
p670
I5756
sS'lay_bf'
p671
F1.0
s.
